; ModuleID = '1134.c'
source_filename = "1134.c"
target datalayout = "e-m:e-p270:32:32-p271:32:32-p272:64:64-i64:64-f80:128-n8:16:32:64-S128"
target triple = "x86_64-pc-linux-gnu"

@.str = private unnamed_addr constant [3 x i8] c"%s\00", align 1

; Function Attrs: noinline nounwind uwtable
define dso_local i32 @main() #0 {
  %1 = alloca i32, align 4
  %2 = alloca i32, align 4
  %3 = alloca [100 x i8], align 16
  %4 = alloca i32, align 4
  %5 = alloca i32, align 4
  %6 = alloca i32, align 4
  store i32 0, i32* %1, align 4
  store i32 0, i32* %4, align 4
  store i32 100, i32* %5, align 4
  store i32 0, i32* %6, align 4
  br label %7

7:                                                ; preds = %44, %0
  %8 = call i32 @getchar()
  store i32 %8, i32* %2, align 4
  %9 = icmp ne i32 %8, 10
  br i1 %9, label %10, label %45

10:                                               ; preds = %7
  %11 = load i32, i32* %2, align 4
  %12 = icmp ne i32 %11, 32
  br i1 %12, label %13, label %21

13:                                               ; preds = %10
  store i32 100, i32* %5, align 4
  %14 = load i32, i32* %2, align 4
  %15 = trunc i32 %14 to i8
  %16 = load i32, i32* %4, align 4
  %17 = sext i32 %16 to i64
  %18 = getelementptr inbounds [100 x i8], [100 x i8]* %3, i64 0, i64 %17
  store i8 %15, i8* %18, align 1
  %19 = load i32, i32* %4, align 4
  %20 = add nsw i32 %19, 1
  store i32 %20, i32* %4, align 4
  br label %44

21:                                               ; preds = %10
  %22 = load i32, i32* %2, align 4
  %23 = icmp eq i32 %22, 32
  br i1 %23, label %24, label %35

24:                                               ; preds = %21
  %25 = load i32, i32* %5, align 4
  %26 = icmp eq i32 %25, 100
  br i1 %26, label %27, label %35

27:                                               ; preds = %24
  %28 = load i32, i32* %2, align 4
  %29 = trunc i32 %28 to i8
  %30 = load i32, i32* %4, align 4
  %31 = sext i32 %30 to i64
  %32 = getelementptr inbounds [100 x i8], [100 x i8]* %3, i64 0, i64 %31
  store i8 %29, i8* %32, align 1
  %33 = load i32, i32* %4, align 4
  %34 = add nsw i32 %33, 1
  store i32 %34, i32* %4, align 4
  store i32 100, i32* %5, align 4
  br label %43

35:                                               ; preds = %24, %21
  %36 = load i32, i32* %2, align 4
  %37 = icmp eq i32 %36, 32
  br i1 %37, label %38, label %42

38:                                               ; preds = %35
  %39 = load i32, i32* %5, align 4
  %40 = icmp eq i32 %39, 100
  br i1 %40, label %41, label %42

41:                                               ; preds = %38
  store i32 100, i32* %5, align 4
  br label %42

42:                                               ; preds = %41, %38, %35
  br label %43

43:                                               ; preds = %42, %27
  br label %44

44:                                               ; preds = %43, %13
  br label %7

45:                                               ; preds = %7
  %46 = load i32, i32* %4, align 4
  %47 = sext i32 %46 to i64
  %48 = getelementptr inbounds [100 x i8], [100 x i8]* %3, i64 0, i64 %47
  store i8 0, i8* %48, align 1
  %49 = getelementptr inbounds [100 x i8], [100 x i8]* %3, i64 0, i64 0
  %50 = call i32 (i8*, ...) @printf(i8* getelementptr inbounds ([3 x i8], [3 x i8]* @.str, i64 0, i64 0), i8* %49)
  %51 = load i32, i32* %1, align 4
  ret i32 %51
}

declare dso_local i32 @getchar() #1

declare dso_local i32 @printf(i8*, ...) #1


!llvm.module.flags = !{!0}
!llvm.ident = !{!1}

!0 = !{i32 1, !"wchar_size", i32 4}
!1 = !{!"clang version 10.0.0-4ubuntu1 "}
